; Function Attrs: cold mustprogress nofree nounwind uwtable
define dso_local void @_Z7WarningPKcP13__va_list_tag(ptr noundef readonly captures(none) %0, ptr noundef %1) local_unnamed_addr #5 {
  %3 = load ptr, ptr @stderr, align 8, !tbaa !4
  %4 = tail call i64 @fwrite(ptr nonnull @.str.2, i64 16, i64 1, ptr %3) #33
  %5 = load ptr, ptr @stderr, align 8, !tbaa !4
  %6 = tail call i32 @vfprintf(ptr noundef %5, ptr noundef %0, ptr noundef %1) #34
  %7 = load ptr, ptr @stderr, align 8, !tbaa !4
  %fputc = tail call i32 @fputc(i32 10, ptr %7)
  ret void
}